# SymbolsHelper-Confirmed: 4:4.11.1 amd64
libnepomukwidgets.so.4abi1 libnepomukwidgets4abi1 #MINVER#
 ABI_4_1@ABI_4_1 4:4.11.1
 _ZN8Nepomuk218FileMetaDataWidget11qt_metacallEN11QMetaObject4CallEiPPv@ABI_4_1 4:4.11.1
 _ZN8Nepomuk218FileMetaDataWidget11qt_metacastEPKc@ABI_4_1 4:4.11.1
 _ZN8Nepomuk218FileMetaDataWidget11setReadOnlyEb@ABI_4_1 4:4.11.1
 _ZN8Nepomuk218FileMetaDataWidget12urlActivatedERK4KUrl@ABI_4_1 4:4.11.1
 _ZN8Nepomuk218FileMetaDataWidget16staticMetaObjectE@ABI_4_1 4:4.11.1
 _ZN8Nepomuk218FileMetaDataWidget23metaDataRequestFinishedERK13KFileItemList@ABI_4_1 4:4.11.1
 _ZN8Nepomuk218FileMetaDataWidget7Private10deleteRowsEv@ABI_4_1 4:4.11.1
 _ZN8Nepomuk218FileMetaDataWidget7Private17slotLinkActivatedERK7QString@ABI_4_1 4:4.11.1
 _ZN8Nepomuk218FileMetaDataWidget7Private19slotLoadingFinishedEv@ABI_4_1 4:4.11.1
 _ZN8Nepomuk218FileMetaDataWidget7Private21slotDataChangeStartedEv@ABI_4_1 4:4.11.1
 _ZN8Nepomuk218FileMetaDataWidget7Private22slotDataChangeFinishedEv@ABI_4_1 4:4.11.1
 _ZN8Nepomuk218FileMetaDataWidget7PrivateC1EPS0_@ABI_4_1 4:4.11.1
 _ZN8Nepomuk218FileMetaDataWidget7PrivateC2EPS0_@ABI_4_1 4:4.11.1
 _ZN8Nepomuk218FileMetaDataWidget7PrivateD1Ev@ABI_4_1 4:4.11.1
 _ZN8Nepomuk218FileMetaDataWidget7PrivateD2Ev@ABI_4_1 4:4.11.1
 _ZN8Nepomuk218FileMetaDataWidget8setItemsERK13KFileItemList@ABI_4_1 4:4.11.1
 _ZN8Nepomuk218FileMetaDataWidgetC1EP7QWidget@ABI_4_1 4:4.11.1
 _ZN8Nepomuk218FileMetaDataWidgetC2EP7QWidget@ABI_4_1 4:4.11.1
 _ZN8Nepomuk218FileMetaDataWidgetD0Ev@ABI_4_1 4:4.11.1
 _ZN8Nepomuk218FileMetaDataWidgetD1Ev@ABI_4_1 4:4.11.1
 _ZN8Nepomuk218FileMetaDataWidgetD2Ev@ABI_4_1 4:4.11.1
 _ZN8Nepomuk224FileMetaDataConfigWidget11qt_metacallEN11QMetaObject4CallEiPPv@ABI_4_1 4:4.11.1
 _ZN8Nepomuk224FileMetaDataConfigWidget11qt_metacastEPKc@ABI_4_1 4:4.11.1
 _ZN8Nepomuk224FileMetaDataConfigWidget16staticMetaObjectE@ABI_4_1 4:4.11.1
 _ZN8Nepomuk224FileMetaDataConfigWidget4saveEv@ABI_4_1 4:4.11.1
 _ZN8Nepomuk224FileMetaDataConfigWidget5eventEP6QEvent@ABI_4_1 4:4.11.1
 _ZN8Nepomuk224FileMetaDataConfigWidget7Private12loadMetaDataEv@ABI_4_1 4:4.11.1
 _ZN8Nepomuk224FileMetaDataConfigWidget7Private19slotLoadingFinishedEv@ABI_4_1 4:4.11.1
 _ZN8Nepomuk224FileMetaDataConfigWidget7Private7addItemERK4KUrl@ABI_4_1 4:4.11.1
 _ZN8Nepomuk224FileMetaDataConfigWidget7PrivateC1EPS0_@ABI_4_1 4:4.11.1
 _ZN8Nepomuk224FileMetaDataConfigWidget7PrivateC2EPS0_@ABI_4_1 4:4.11.1
 _ZN8Nepomuk224FileMetaDataConfigWidget7PrivateD1Ev@ABI_4_1 4:4.11.1
 _ZN8Nepomuk224FileMetaDataConfigWidget7PrivateD2Ev@ABI_4_1 4:4.11.1
 _ZN8Nepomuk224FileMetaDataConfigWidget8setItemsERK13KFileItemList@ABI_4_1 4:4.11.1
 _ZN8Nepomuk224FileMetaDataConfigWidgetC1EP7QWidget@ABI_4_1 4:4.11.1
 _ZN8Nepomuk224FileMetaDataConfigWidgetC2EP7QWidget@ABI_4_1 4:4.11.1
 _ZN8Nepomuk224FileMetaDataConfigWidgetD0Ev@ABI_4_1 4:4.11.1
 _ZN8Nepomuk224FileMetaDataConfigWidgetD1Ev@ABI_4_1 4:4.11.1
 _ZN8Nepomuk224FileMetaDataConfigWidgetD2Ev@ABI_4_1 4:4.11.1
 _ZN8Nepomuk25Utils13ResourceModel10addResultsERK5QListINS_5Query6ResultEE@ABI_4_1 4:4.11.1
 _ZN8Nepomuk25Utils13ResourceModel10removeRowsEiiRK11QModelIndex@ABI_4_1 4:4.11.1
 _ZN8Nepomuk25Utils13ResourceModel10setResultsERK5QListINS_5Query6ResultEE@ABI_4_1 4:4.11.1
 _ZN8Nepomuk25Utils13ResourceModel11addResourceERKNS_8ResourceE@ABI_4_1 4:4.11.1
 _ZN8Nepomuk25Utils13ResourceModel11qt_metacallEN11QMetaObject4CallEiPPv@ABI_4_1 4:4.11.1
 _ZN8Nepomuk25Utils13ResourceModel11qt_metacastEPKc@ABI_4_1 4:4.11.1
 _ZN8Nepomuk25Utils13ResourceModel12addResourcesERK5QListINS_8ResourceEE@ABI_4_1 4:4.11.1
 _ZN8Nepomuk25Utils13ResourceModel12setResourcesERK5QListINS_8ResourceEE@ABI_4_1 4:4.11.1
 _ZN8Nepomuk25Utils13ResourceModel16indexForResourceERKNS_8ResourceE@ABI_4_1 4:4.11.1
 _ZN8Nepomuk25Utils13ResourceModel16staticMetaObjectE@ABI_4_1 4:4.11.1
 _ZN8Nepomuk25Utils13ResourceModel5clearEv@ABI_4_1 4:4.11.1
 _ZN8Nepomuk25Utils13ResourceModel7setDataERK11QModelIndexRK8QVarianti@ABI_4_1 4:4.11.1
 _ZN8Nepomuk25Utils13ResourceModel9addResultENS_5Query6ResultE@ABI_4_1 4:4.11.1
 _ZN8Nepomuk25Utils13ResourceModelC1EP7QObject@ABI_4_1 4:4.11.1
 _ZN8Nepomuk25Utils13ResourceModelC2EP7QObject@ABI_4_1 4:4.11.1
 _ZN8Nepomuk25Utils13ResourceModelD0Ev@ABI_4_1 4:4.11.1
 _ZN8Nepomuk25Utils13ResourceModelD1Ev@ABI_4_1 4:4.11.1
 _ZN8Nepomuk25Utils13ResourceModelD2Ev@ABI_4_1 4:4.11.1
 _ZN8Nepomuk29TagWidget10tagClickedENS_3TagE@ABI_4_1 4:4.11.1
 _ZN8Nepomuk29TagWidget11qt_metacallEN11QMetaObject4CallEiPPv@ABI_4_1 4:4.11.1
 _ZN8Nepomuk29TagWidget11qt_metacastEPKc@ABI_4_1 4:4.11.1
 _ZN8Nepomuk29TagWidget11slotShowAllEv@ABI_4_1 4:4.11.1
 _ZN8Nepomuk29TagWidget12setAlignmentE6QFlagsIN2Qt13AlignmentFlagEE@ABI_4_1 4:4.11.1
 _ZN8Nepomuk29TagWidget12setModeFlagsE6QFlagsINS0_8ModeFlagEE@ABI_4_1 4:4.11.1
 _ZN8Nepomuk29TagWidget15setAssignedTagsERK5QListINS_3TagEE@ABI_4_1 4:4.11.1
 _ZN8Nepomuk29TagWidget15setMaxTagsShownEi@ABI_4_1 4:4.11.1
 _ZN8Nepomuk29TagWidget15setSelectedTagsERK5QListINS_3TagEE@ABI_4_1 4:4.11.1
 _ZN8Nepomuk29TagWidget16selectionChangedERK5QListINS_3TagEE@ABI_4_1 4:4.11.1
 _ZN8Nepomuk29TagWidget16staticMetaObjectE@ABI_4_1 4:4.11.1
 _ZN8Nepomuk29TagWidget17setTaggedResourceERKNS_8ResourceE@ABI_4_1 4:4.11.1
 _ZN8Nepomuk29TagWidget17slotTagUpdateDoneEv@ABI_4_1 4:4.11.1
 _ZN8Nepomuk29TagWidget18setTaggedResourcesERK5QListINS_8ResourceEE@ABI_4_1 4:4.11.1
 _ZN8Nepomuk29TagWidget19slotTagStateChangedERKNS_3TagEi@ABI_4_1 4:4.11.1
 _ZN8Nepomuk29TagWidget26slotKEditTagDialogFinishedEi@ABI_4_1 4:4.11.1
 _ZN8Nepomuk29TagWidgetC1EP7QWidget@ABI_4_1 4:4.11.1
 _ZN8Nepomuk29TagWidgetC1ERKNS_8ResourceEP7QWidget@ABI_4_1 4:4.11.1
 _ZN8Nepomuk29TagWidgetC2EP7QWidget@ABI_4_1 4:4.11.1
 _ZN8Nepomuk29TagWidgetC2ERKNS_8ResourceEP7QWidget@ABI_4_1 4:4.11.1
 _ZN8Nepomuk29TagWidgetD0Ev@ABI_4_1 4:4.11.1
 _ZN8Nepomuk29TagWidgetD1Ev@ABI_4_1 4:4.11.1
 _ZN8Nepomuk29TagWidgetD2Ev@ABI_4_1 4:4.11.1
 _ZNK8Nepomuk218FileMetaDataWidget10isReadOnlyEv@ABI_4_1 4:4.11.1
 _ZNK8Nepomuk218FileMetaDataWidget10metaObjectEv@ABI_4_1 4:4.11.1
 _ZNK8Nepomuk218FileMetaDataWidget5itemsEv@ABI_4_1 4:4.11.1
 _ZNK8Nepomuk218FileMetaDataWidget7Private10sortedKeysERK5QHashI4QUrlNS_7VariantEE@ABI_4_1 4:4.11.1
 _ZNK8Nepomuk218FileMetaDataWidget7Private14hasNepomukUrisEv@ABI_4_1 4:4.11.1
 _ZNK8Nepomuk218FileMetaDataWidget8sizeHintEv@ABI_4_1 4:4.11.1
 _ZNK8Nepomuk224FileMetaDataConfigWidget10metaObjectEv@ABI_4_1 4:4.11.1
 _ZNK8Nepomuk224FileMetaDataConfigWidget5itemsEv@ABI_4_1 4:4.11.1
 _ZNK8Nepomuk224FileMetaDataConfigWidget8sizeHintEv@ABI_4_1 4:4.11.1
 _ZNK8Nepomuk25Utils13ResourceModel10headerDataEiN2Qt11OrientationEi@ABI_4_1 4:4.11.1
 _ZNK8Nepomuk25Utils13ResourceModel10metaObjectEv@ABI_4_1 4:4.11.1
 _ZNK8Nepomuk25Utils13ResourceModel11columnCountERK11QModelIndex@ABI_4_1 4:4.11.1
 _ZNK8Nepomuk25Utils13ResourceModel16resourceForIndexERK11QModelIndex@ABI_4_1 4:4.11.1
 _ZNK8Nepomuk25Utils13ResourceModel4dataERK11QModelIndexi@ABI_4_1 4:4.11.1
 _ZNK8Nepomuk25Utils13ResourceModel5flagsERK11QModelIndex@ABI_4_1 4:4.11.1
 _ZNK8Nepomuk25Utils13ResourceModel5indexEiiRK11QModelIndex@ABI_4_1 4:4.11.1
 _ZNK8Nepomuk25Utils13ResourceModel6parentERK11QModelIndex@ABI_4_1 4:4.11.1
 _ZNK8Nepomuk25Utils13ResourceModel8mimeDataERK5QListI11QModelIndexE@ABI_4_1 4:4.11.1
 _ZNK8Nepomuk25Utils13ResourceModel8rowCountERK11QModelIndex@ABI_4_1 4:4.11.1
 _ZNK8Nepomuk25Utils13ResourceModel9mimeTypesEv@ABI_4_1 4:4.11.1
 _ZNK8Nepomuk29TagWidget10metaObjectEv@ABI_4_1 4:4.11.1
 _ZNK8Nepomuk29TagWidget12assignedTagsEv@ABI_4_1 4:4.11.1
 _ZNK8Nepomuk29TagWidget12maxTagsShownEv@ABI_4_1 4:4.11.1
 _ZNK8Nepomuk29TagWidget12selectedTagsEv@ABI_4_1 4:4.11.1
 _ZNK8Nepomuk29TagWidget15taggedResourcesEv@ABI_4_1 4:4.11.1
 _ZNK8Nepomuk29TagWidget9alignmentEv@ABI_4_1 4:4.11.1
 _ZNK8Nepomuk29TagWidget9modeFlagsEv@ABI_4_1 4:4.11.1
 _ZTIN8Nepomuk218FileMetaDataWidgetE@ABI_4_1 4:4.11.1
 _ZTIN8Nepomuk224FileMetaDataConfigWidgetE@ABI_4_1 4:4.11.1
 _ZTIN8Nepomuk25Utils13ResourceModelE@ABI_4_1 4:4.11.1
 _ZTIN8Nepomuk29TagWidgetE@ABI_4_1 4:4.11.1
 _ZTSN8Nepomuk218FileMetaDataWidgetE@ABI_4_1 4:4.11.1
 _ZTSN8Nepomuk224FileMetaDataConfigWidgetE@ABI_4_1 4:4.11.1
 _ZTSN8Nepomuk25Utils13ResourceModelE@ABI_4_1 4:4.11.1
 _ZTSN8Nepomuk29TagWidgetE@ABI_4_1 4:4.11.1
 _ZTVN8Nepomuk218FileMetaDataWidgetE@ABI_4_1 4:4.11.1
 _ZTVN8Nepomuk224FileMetaDataConfigWidgetE@ABI_4_1 4:4.11.1
 _ZTVN8Nepomuk25Utils13ResourceModelE@ABI_4_1 4:4.11.1
 _ZTVN8Nepomuk29TagWidgetE@ABI_4_1 4:4.11.1
 (c++)"non-virtual thunk to Nepomuk2::FileMetaDataConfigWidget::~FileMetaDataConfigWidget()@ABI_4_1" 4:4.11.1
 (c++)"non-virtual thunk to Nepomuk2::FileMetaDataWidget::~FileMetaDataWidget()@ABI_4_1" 4:4.11.1
 (c++)"non-virtual thunk to Nepomuk2::TagWidget::~TagWidget()@ABI_4_1" 4:4.11.1
